target datalayout = "e-m:e-p270:32:32-p271:32:32-p272:64:64-i64:64-i128:128-f80:128-n8:16:32:64-S128"
target triple = "x86_64-pc-linux-gnu"

%"struct.duckdb_libpgquery::PGValue" = type { i32, %"union.duckdb_libpgquery::PGValue::ValUnion" }
%"union.duckdb_libpgquery::PGValue::ValUnion" = type { i64 }
%"struct.duckdb_libpgquery::PGNode" = type { i32 }
%"struct.duckdb_libpgquery::PGAConst" = type { i32, %"struct.duckdb_libpgquery::PGValue", i32 }

@.str.75 = private unnamed_addr constant [2 x i8] c"-\00", align 1
@.str.179 = private unnamed_addr constant [4 x i8] c"-%s\00", align 1

; Function Attrs: mustprogress uwtable
define internal void @_ZN17duckdb_libpgqueryL13doNegateFloatEPNS_7PGValueE(ptr noundef %0) #0 {
  %2 = alloca ptr, align 8
  %3 = alloca ptr, align 8
  store ptr %0, ptr %2, align 8, !tbaa !746
  call void @llvm.lifetime.start.p0(i64 8, ptr %3) #13
  %4 = load ptr, ptr %2, align 8, !tbaa !746
  %5 = getelementptr inbounds nuw %"struct.duckdb_libpgquery::PGValue", ptr %4, i32 0, i32 1
  %6 = load ptr, ptr %5, align 8, !tbaa !22
  store ptr %6, ptr %3, align 8, !tbaa !470
  %7 = load ptr, ptr %3, align 8, !tbaa !470
  %8 = load i8, ptr %7, align 1, !tbaa !22
  %9 = sext i8 %8 to i32
  %10 = icmp eq i32 %9, 43
  br i1 %10, label %11, label %14

11:                                               ; preds = %1
  %12 = load ptr, ptr %3, align 8, !tbaa !470
  %13 = getelementptr inbounds nuw i8, ptr %12, i32 1
  store ptr %13, ptr %3, align 8, !tbaa !470
  br label %14

14:                                               ; preds = %11, %1
  %15 = load ptr, ptr %3, align 8, !tbaa !470
  %16 = load i8, ptr %15, align 1, !tbaa !22
  %17 = sext i8 %16 to i32
  %18 = icmp eq i32 %17, 45
  br i1 %18, label %19, label %24

19:                                               ; preds = %14
  %20 = load ptr, ptr %3, align 8, !tbaa !470
  %21 = getelementptr inbounds i8, ptr %20, i64 1
  %22 = load ptr, ptr %2, align 8, !tbaa !746
  %23 = getelementptr inbounds nuw %"struct.duckdb_libpgquery::PGValue", ptr %22, i32 0, i32 1
  store ptr %21, ptr %23, align 8, !tbaa !22
  br label %29

24:                                               ; preds = %14
  %25 = load ptr, ptr %3, align 8, !tbaa !470
  %26 = call noundef ptr (ptr, ...) @_ZN17duckdb_libpgquery8psprintfEPKcz(ptr noundef @.str.179, ptr noundef %25)
  %27 = load ptr, ptr %2, align 8, !tbaa !746
  %28 = getelementptr inbounds nuw %"struct.duckdb_libpgquery::PGValue", ptr %27, i32 0, i32 1
  store ptr %26, ptr %28, align 8, !tbaa !22
  br label %29

29:                                               ; preds = %24, %19
  call void @llvm.lifetime.end.p0(i64 8, ptr %3) #13
  ret void
}

; Function Attrs: mustprogress uwtable
define internal noundef ptr @_ZN17duckdb_libpgqueryL8doNegateEPNS_6PGNodeEi(ptr noundef %0, i32 noundef %1) #0 {
  %3 = alloca ptr, align 8
  %4 = alloca ptr, align 8
  %5 = alloca i32, align 4
  %6 = alloca ptr, align 8
  %7 = alloca i32, align 4
  store ptr %0, ptr %4, align 8, !tbaa !408
  store i32 %1, ptr %5, align 4, !tbaa !7
  %8 = load ptr, ptr %4, align 8, !tbaa !408
  %9 = getelementptr inbounds nuw %"struct.duckdb_libpgquery::PGNode", ptr %8, i32 0, i32 0
  %10 = load i32, ptr %9, align 4, !tbaa !460
  %11 = icmp eq i32 %10, 355
  br i1 %11, label %12, label %46

12:                                               ; preds = %2
  call void @llvm.lifetime.start.p0(i64 8, ptr %6) #13
  %13 = load ptr, ptr %4, align 8, !tbaa !408
  store ptr %13, ptr %6, align 8, !tbaa !661
  %14 = load i32, ptr %5, align 4, !tbaa !7
  %15 = load ptr, ptr %6, align 8, !tbaa !661
  %16 = getelementptr inbounds nuw %"struct.duckdb_libpgquery::PGAConst", ptr %15, i32 0, i32 2
  store i32 %14, ptr %16, align 8, !tbaa !745
  %17 = load ptr, ptr %6, align 8, !tbaa !661
  %18 = getelementptr inbounds nuw %"struct.duckdb_libpgquery::PGAConst", ptr %17, i32 0, i32 1
  %19 = getelementptr inbounds nuw %"struct.duckdb_libpgquery::PGValue", ptr %18, i32 0, i32 0
  %20 = load i32, ptr %19, align 8, !tbaa !742
  %21 = icmp eq i32 %20, 216
  br i1 %21, label %22, label %32

22:                                               ; preds = %12
  %23 = load ptr, ptr %6, align 8, !tbaa !661
  %24 = getelementptr inbounds nuw %"struct.duckdb_libpgquery::PGAConst", ptr %23, i32 0, i32 1
  %25 = getelementptr inbounds nuw %"struct.duckdb_libpgquery::PGValue", ptr %24, i32 0, i32 1
  %26 = load i64, ptr %25, align 8, !tbaa !22
  %27 = sub nsw i64 0, %26
  %28 = load ptr, ptr %6, align 8, !tbaa !661
  %29 = getelementptr inbounds nuw %"struct.duckdb_libpgquery::PGAConst", ptr %28, i32 0, i32 1
  %30 = getelementptr inbounds nuw %"struct.duckdb_libpgquery::PGValue", ptr %29, i32 0, i32 1
  store i64 %27, ptr %30, align 8, !tbaa !22
  %31 = load ptr, ptr %4, align 8, !tbaa !408
  store ptr %31, ptr %3, align 8
  store i32 1, ptr %7, align 4
  br label %43

32:                                               ; preds = %12
  %33 = load ptr, ptr %6, align 8, !tbaa !661
  %34 = getelementptr inbounds nuw %"struct.duckdb_libpgquery::PGAConst", ptr %33, i32 0, i32 1
  %35 = getelementptr inbounds nuw %"struct.duckdb_libpgquery::PGValue", ptr %34, i32 0, i32 0
  %36 = load i32, ptr %35, align 8, !tbaa !742
  %37 = icmp eq i32 %36, 217
  br i1 %37, label %38, label %42

38:                                               ; preds = %32
  %39 = load ptr, ptr %6, align 8, !tbaa !661
  %40 = getelementptr inbounds nuw %"struct.duckdb_libpgquery::PGAConst", ptr %39, i32 0, i32 1
  call void @_ZN17duckdb_libpgqueryL13doNegateFloatEPNS_7PGValueE(ptr noundef %40)
  %41 = load ptr, ptr %4, align 8, !tbaa !408
  store ptr %41, ptr %3, align 8
  store i32 1, ptr %7, align 4
  br label %43

42:                                               ; preds = %32
  store i32 0, ptr %7, align 4
  br label %43

43:                                               ; preds = %42, %38, %22
  call void @llvm.lifetime.end.p0(i64 8, ptr %6) #13
  %44 = load i32, ptr %7, align 4
  switch i32 %44, label %52 [
    i32 0, label %45
    i32 1, label %50
  ]

45:                                               ; preds = %43
  br label %46

46:                                               ; preds = %45, %2
  %47 = load ptr, ptr %4, align 8, !tbaa !408
  %48 = load i32, ptr %5, align 4, !tbaa !7
  %49 = call noundef ptr @_ZN17duckdb_libpgquery15makeSimpleAExprENS_12PGAExpr_KindEPKcPNS_6PGNodeES4_i(i32 noundef 0, ptr noundef @.str.75, ptr noundef null, ptr noundef %47, i32 noundef %48)
  store ptr %49, ptr %3, align 8
  br label %50

50:                                               ; preds = %46, %43
  %51 = load ptr, ptr %3, align 8
  ret ptr %51

52:                                               ; preds = %43
  unreachable
}