; Function Attrs: mustprogress uwtable
define internal fastcc noundef ptr @_ZN17duckdb_libpgqueryL8doNegateEPNS_6PGNodeEi(ptr noundef %0, i32 noundef %1) unnamed_addr #0 {
  %3 = load i32, ptr %0, align 4, !tbaa !386
  %4 = icmp eq i32 %3, 355
  br i1 %4, label %5, label %24

5:                                                ; preds = %2
  %6 = getelementptr inbounds nuw i8, ptr %0, i64 24
  store i32 %1, ptr %6, align 8, !tbaa !149
  %7 = getelementptr inbounds nuw i8, ptr %0, i64 8
  %8 = load i32, ptr %7, align 8, !tbaa !146
  switch i32 %8, label %24 [
    i32 216, label %9
    i32 217, label %13
  ]

9:                                                ; preds = %5
  %10 = getelementptr inbounds nuw i8, ptr %0, i64 16
  %11 = load i64, ptr %10, align 8, !tbaa !9
  %12 = sub nsw i64 0, %11
  store i64 %12, ptr %10, align 8, !tbaa !9
  br label %.thread

13:                                               ; preds = %5
  %14 = getelementptr inbounds nuw i8, ptr %0, i64 16
  %15 = load ptr, ptr %14, align 8, !tbaa !9
  %16 = load i8, ptr %15, align 1, !tbaa !9
  %17 = icmp eq i8 %16, 43
  %spec.select.idx.i = zext i1 %17 to i64
  %spec.select.i = getelementptr inbounds nuw i8, ptr %15, i64 %spec.select.idx.i
  %18 = load i8, ptr %spec.select.i, align 1, !tbaa !9
  %19 = icmp eq i8 %18, 45
  br i1 %19, label %20, label %22

20:                                               ; preds = %13
  %21 = getelementptr inbounds nuw i8, ptr %spec.select.i, i64 1
  br label %_ZN17duckdb_libpgqueryL13doNegateFloatEPNS_7PGValueE.exit

22:                                               ; preds = %13
  %23 = tail call noundef ptr (ptr, ...) @_ZN17duckdb_libpgquery8psprintfEPKcz(ptr noundef nonnull @.str.179, ptr noundef nonnull %spec.select.i)
  br label %_ZN17duckdb_libpgqueryL13doNegateFloatEPNS_7PGValueE.exit

_ZN17duckdb_libpgqueryL13doNegateFloatEPNS_7PGValueE.exit: ; preds = %20, %22
  %storemerge.i = phi ptr [ %23, %22 ], [ %21, %20 ]
  store ptr %storemerge.i, ptr %14, align 8, !tbaa !9
  br label %.thread

24:                                               ; preds = %5, %2
  %25 = tail call noundef ptr @_ZN17duckdb_libpgquery15makeSimpleAExprENS_12PGAExpr_KindEPKcPNS_6PGNodeES4_i(i32 noundef 0, ptr noundef nonnull @.str.75, ptr noundef null, ptr noundef nonnull %0, i32 noundef %1)
  br label %.thread

.thread:                                          ; preds = %_ZN17duckdb_libpgqueryL13doNegateFloatEPNS_7PGValueE.exit, %9, %24
  %.1 = phi ptr [ %25, %24 ], [ %0, %9 ], [ %0, %_ZN17duckdb_libpgqueryL13doNegateFloatEPNS_7PGValueE.exit ]
  ret ptr %.1
}